target datalayout = "e-m:e-p270:32:32-p271:32:32-p272:64:64-i64:64-i128:128-f80:128-n8:16:32:64-S128"
target triple = "x86_64-pc-linux-gnu"

%"class.nanogui::Color" = type { %"struct.nanogui::Array.5" }
%"struct.nanogui::Array.5" = type { [4 x float] }
%"class.std::__cxx11::basic_string" = type { %"struct.std::__cxx11::basic_string<char>::_Alloc_hider", i64, %union.anon }
%"struct.std::__cxx11::basic_string<char>::_Alloc_hider" = type { ptr }
%union.anon = type { i64, [8 x i8] }
%"class.nanogui::ImageView" = type { %"class.nanogui::Canvas.base", %"class.nanogui::ref.6", %"class.nanogui::ref.7", float, %"struct.nanogui::Array.8", i8, %"class.nanogui::Color", %"class.nanogui::Color", %"class.std::function" }
%"class.nanogui::Canvas.base" = type <{ %"class.nanogui::Widget.base", [4 x i8], %"class.nanogui::ref.4", i8, [3 x i8], %"class.nanogui::Color", i8 }>
%"class.nanogui::Widget.base" = type <{ %"class.nanogui::Object.base", [4 x i8], ptr, %"class.nanogui::ref", %"class.nanogui::ref.0", %"struct.nanogui::Array", %"struct.nanogui::Array", %"struct.nanogui::Array", %"class.std::vector", i8, i8, i8, i8, [4 x i8], %"class.std::__cxx11::basic_string", i32, float, i32 }>
%"class.nanogui::Object.base" = type <{ ptr, %"struct.std::atomic" }>
%"struct.std::atomic" = type { %"struct.std::__atomic_base" }
%"struct.std::__atomic_base" = type { i32 }
%"class.nanogui::ref" = type { ptr }
%"class.nanogui::ref.0" = type { ptr }
%"struct.nanogui::Array" = type { [2 x i32] }
%"class.std::vector" = type { %"struct.std::_Vector_base" }
%"struct.std::_Vector_base" = type { %"struct.std::_Vector_base<nanogui::Widget *, std::allocator<nanogui::Widget *>>::_Vector_impl" }
%"struct.std::_Vector_base<nanogui::Widget *, std::allocator<nanogui::Widget *>>::_Vector_impl" = type { %"struct.std::_Vector_base<nanogui::Widget *, std::allocator<nanogui::Widget *>>::_Vector_impl_data" }
%"struct.std::_Vector_base<nanogui::Widget *, std::allocator<nanogui::Widget *>>::_Vector_impl_data" = type { ptr, ptr, ptr }
%"class.nanogui::ref.4" = type { ptr }
%"class.nanogui::ref.6" = type { ptr }
%"class.nanogui::ref.7" = type { ptr }
%"struct.nanogui::Array.8" = type { [2 x float] }
%"class.std::function" = type { %"class.std::_Function_base", ptr }
%"class.std::_Function_base" = type { %"union.std::_Any_data", ptr }
%"union.std::_Any_data" = type { %"union.std::_Nocopy_types" }
%"union.std::_Nocopy_types" = type { { i64, i64 } }
%"class.nanogui::Widget" = type <{ %"class.nanogui::Object.base", [4 x i8], ptr, %"class.nanogui::ref", %"class.nanogui::ref.0", %"struct.nanogui::Array", %"struct.nanogui::Array", %"struct.nanogui::Array", %"class.std::vector", i8, i8, i8, i8, [4 x i8], %"class.std::__cxx11::basic_string", i32, float, i32, [4 x i8] }>
%"class.nanogui::Screen" = type { %"class.nanogui::Widget.base", ptr, ptr, [6 x ptr], i32, %"class.std::vector", %"struct.nanogui::Array", float, i32, i32, %"struct.nanogui::Array", i8, ptr, double, i8, %"class.nanogui::Color", %"class.std::__cxx11::basic_string", i8, i8, i8, i8, i8, i8, %"class.std::function.26" }
%"class.std::function.26" = type { %"class.std::_Function_base", ptr }

; Function Attrs: mustprogress nounwind uwtable
define linkonce_odr hidden noundef nonnull align 4 dereferenceable(4) ptr @_ZN7nanogui5ArrayIiLm2EEixEm(ptr noundef nonnull align 4 dereferenceable(8) %0, i64 noundef %1) #2 comdat align 2 {
  %3 = alloca ptr, align 8
  %4 = alloca i64, align 8
  store ptr %0, ptr %3, align 8
  store i64 %1, ptr %4, align 8
  %5 = load ptr, ptr %3, align 8
  %6 = getelementptr inbounds %"struct.nanogui::Array", ptr %5, i32 0, i32 0
  %7 = load i64, ptr %4, align 8
  %8 = getelementptr inbounds [2 x i32], ptr %6, i64 0, i64 %7
  ret ptr %8
}

; Function Attrs: mustprogress nounwind uwtable
define linkonce_odr hidden void @_ZN7nanogui5ArrayIiLm2EEC2Ev(ptr noundef nonnull align 4 dereferenceable(8) %0) unnamed_addr #2 comdat align 2 {
  %2 = alloca ptr, align 8
  store ptr %0, ptr %2, align 8
  ret void
}

; Function Attrs: mustprogress nounwind uwtable
define linkonce_odr hidden noundef nonnull align 4 dereferenceable(8) ptr @_ZN7nanogui5ArrayIfLm2EEpLERKS1_(ptr noundef nonnull align 4 dereferenceable(8) %0, ptr noundef nonnull align 4 dereferenceable(8) %1) #2 comdat align 2 {
  %3 = alloca ptr, align 8
  %4 = alloca ptr, align 8
  %5 = alloca i64, align 8
  store ptr %0, ptr %3, align 8
  store ptr %1, ptr %4, align 8
  %6 = load ptr, ptr %3, align 8
  store i64 0, ptr %5, align 8
  br label %7

7:                                                ; preds = %21, %2
  %8 = load i64, ptr %5, align 8
  %9 = icmp ult i64 %8, 2
  br i1 %9, label %10, label %24

10:                                               ; preds = %7
  %11 = load ptr, ptr %4, align 8
  %12 = getelementptr inbounds %"struct.nanogui::Array.8", ptr %11, i32 0, i32 0
  %13 = load i64, ptr %5, align 8
  %14 = getelementptr inbounds [2 x float], ptr %12, i64 0, i64 %13
  %15 = load float, ptr %14, align 4
  %16 = getelementptr inbounds %"struct.nanogui::Array.8", ptr %6, i32 0, i32 0
  %17 = load i64, ptr %5, align 8
  %18 = getelementptr inbounds [2 x float], ptr %16, i64 0, i64 %17
  %19 = load float, ptr %18, align 4
  %20 = fadd float %19, %15
  store float %20, ptr %18, align 4
  br label %21

21:                                               ; preds = %10
  %22 = load i64, ptr %5, align 8
  %23 = add i64 %22, 1
  store i64 %23, ptr %5, align 8
  br label %7, !llvm.loop !17

24:                                               ; preds = %7
  ret ptr %6
}

; Function Attrs: mustprogress nounwind uwtable
define linkonce_odr hidden void @_ZN7nanogui5ArrayIfLm2EEC2IiEERKNS0_IT_Lm2EEE(ptr noundef nonnull align 4 dereferenceable(8) %0, ptr noundef nonnull align 4 dereferenceable(8) %1) unnamed_addr #2 comdat align 2 {
  %3 = alloca ptr, align 8
  %4 = alloca ptr, align 8
  %5 = alloca i64, align 8
  store ptr %0, ptr %3, align 8
  store ptr %1, ptr %4, align 8
  %6 = load ptr, ptr %3, align 8
  store i64 0, ptr %5, align 8
  br label %7

7:                                                ; preds = %20, %2
  %8 = load i64, ptr %5, align 8
  %9 = icmp ult i64 %8, 2
  br i1 %9, label %10, label %23

10:                                               ; preds = %7
  %11 = load ptr, ptr %4, align 8
  %12 = getelementptr inbounds %"struct.nanogui::Array", ptr %11, i32 0, i32 0
  %13 = load i64, ptr %5, align 8
  %14 = getelementptr inbounds [2 x i32], ptr %12, i64 0, i64 %13
  %15 = load i32, ptr %14, align 4
  %16 = sitofp i32 %15 to float
  %17 = getelementptr inbounds %"struct.nanogui::Array.8", ptr %6, i32 0, i32 0
  %18 = load i64, ptr %5, align 8
  %19 = getelementptr inbounds [2 x float], ptr %17, i64 0, i64 %18
  store float %16, ptr %19, align 4
  br label %20

20:                                               ; preds = %10
  %21 = load i64, ptr %5, align 8
  %22 = add i64 %21, 1
  store i64 %22, ptr %5, align 8
  br label %7, !llvm.loop !9

23:                                               ; preds = %7
  ret void
}

; Function Attrs: mustprogress uwtable
define linkonce_odr hidden i64 @_ZN7nanoguimlERKNS_5ArrayIiLm2EEES3_(ptr noundef nonnull align 4 dereferenceable(8) %0, ptr noundef nonnull align 4 dereferenceable(8) %1) #0 comdat {
  %3 = alloca %"struct.nanogui::Array", align 4
  %4 = alloca ptr, align 8
  %5 = alloca ptr, align 8
  %6 = alloca i64, align 8
  store ptr %0, ptr %4, align 8
  store ptr %1, ptr %5, align 8
  call void @_ZN7nanogui5ArrayIiLm2EEC2Ev(ptr noundef nonnull align 4 dereferenceable(8) %3)
  store i64 0, ptr %6, align 8
  br label %7

7:                                                ; preds = %24, %2
  %8 = load i64, ptr %6, align 8
  %9 = icmp ult i64 %8, 2
  br i1 %9, label %10, label %27

10:                                               ; preds = %7
  %11 = load ptr, ptr %4, align 8
  %12 = getelementptr inbounds %"struct.nanogui::Array", ptr %11, i32 0, i32 0
  %13 = load i64, ptr %6, align 8
  %14 = getelementptr inbounds [2 x i32], ptr %12, i64 0, i64 %13
  %15 = load i32, ptr %14, align 4
  %16 = load ptr, ptr %5, align 8
  %17 = getelementptr inbounds %"struct.nanogui::Array", ptr %16, i32 0, i32 0
  %18 = load i64, ptr %6, align 8
  %19 = getelementptr inbounds [2 x i32], ptr %17, i64 0, i64 %18
  %20 = load i32, ptr %19, align 4
  %21 = mul nsw i32 %15, %20
  %22 = load i64, ptr %6, align 8
  %23 = call noundef nonnull align 4 dereferenceable(4) ptr @_ZN7nanogui5ArrayIiLm2EEixEm(ptr noundef nonnull align 4 dereferenceable(8) %3, i64 noundef %22)
  store i32 %21, ptr %23, align 4
  br label %24

24:                                               ; preds = %10
  %25 = load i64, ptr %6, align 8
  %26 = add i64 %25, 1
  store i64 %26, ptr %6, align 8
  br label %7, !llvm.loop !16

27:                                               ; preds = %7
  %28 = getelementptr inbounds %"struct.nanogui::Array", ptr %3, i32 0, i32 0
  %29 = load i64, ptr %28, align 4
  ret i64 %29
}

; Function Attrs: mustprogress nounwind uwtable
define linkonce_odr hidden void @_ZN7nanogui5ArrayIiLm2EEC2Ei(ptr noundef nonnull align 4 dereferenceable(8) %0, i32 noundef %1) unnamed_addr #2 comdat align 2 {
  %3 = alloca ptr, align 8
  %4 = alloca i32, align 4
  %5 = alloca i64, align 8
  store ptr %0, ptr %3, align 8
  store i32 %1, ptr %4, align 4
  %6 = load ptr, ptr %3, align 8
  store i64 0, ptr %5, align 8
  br label %7

7:                                                ; preds = %15, %2
  %8 = load i64, ptr %5, align 8
  %9 = icmp ult i64 %8, 2
  br i1 %9, label %10, label %18

10:                                               ; preds = %7
  %11 = load i32, ptr %4, align 4
  %12 = getelementptr inbounds %"struct.nanogui::Array", ptr %6, i32 0, i32 0
  %13 = load i64, ptr %5, align 8
  %14 = getelementptr inbounds [2 x i32], ptr %12, i64 0, i64 %13
  store i32 %11, ptr %14, align 4
  br label %15

15:                                               ; preds = %10
  %16 = load i64, ptr %5, align 8
  %17 = add i64 %16, 1
  store i64 %17, ptr %5, align 8
  br label %7, !llvm.loop !14

18:                                               ; preds = %7
  ret void
}

; Function Attrs: mustprogress nounwind uwtable
define linkonce_odr hidden noundef float @_ZNK7nanogui6Screen11pixel_ratioEv(ptr noundef nonnull align 8 dereferenceable(384) %0) #2 comdat align 2 {
  %2 = alloca ptr, align 8
  store ptr %0, ptr %2, align 8
  %3 = load ptr, ptr %2, align 8
  %4 = getelementptr inbounds %"class.nanogui::Screen", ptr %3, i32 0, i32 7
  %5 = load float, ptr %4, align 8
  ret float %5
}

; Function Attrs: mustprogress nounwind uwtable
define linkonce_odr hidden noundef ptr @_ZN7nanogui3refINS_7TextureEEcvPS1_Ev(ptr noundef nonnull align 8 dereferenceable(8) %0) #2 comdat align 2 {
  %2 = alloca ptr, align 8
  store ptr %0, ptr %2, align 8
  %3 = load ptr, ptr %2, align 8
  %4 = getelementptr inbounds %"class.nanogui::ref.7", ptr %3, i32 0, i32 0
  %5 = load ptr, ptr %4, align 8
  ret ptr %5
}

; Function Attrs: mustprogress uwtable
define hidden noundef zeroext i1 @_ZN7nanogui9ImageView16mouse_drag_eventERKNS_5ArrayIiLm2EEES4_ii(ptr noundef nonnull align 8 dereferenceable(272) %0, ptr noundef nonnull align 4 dereferenceable(8) %1, ptr noundef nonnull align 4 dereferenceable(8) %2, i32 noundef %3, i32 noundef %4) unnamed_addr #0 align 2 {
  %6 = alloca i1, align 1
  %7 = alloca ptr, align 8
  %8 = alloca ptr, align 8
  %9 = alloca ptr, align 8
  %10 = alloca i32, align 4
  %11 = alloca i32, align 4
  %12 = alloca %"struct.nanogui::Array.8", align 4
  %13 = alloca %"struct.nanogui::Array", align 4
  %14 = alloca %"struct.nanogui::Array", align 4
  store ptr %0, ptr %7, align 8
  store ptr %1, ptr %8, align 8
  store ptr %2, ptr %9, align 8
  store i32 %3, ptr %10, align 4
  store i32 %4, ptr %11, align 4
  %15 = load ptr, ptr %7, align 8
  %16 = getelementptr inbounds %"class.nanogui::Widget", ptr %15, i32 0, i32 10
  %17 = load i8, ptr %16, align 1
  %18 = trunc i8 %17 to i1
  br i1 %18, label %19, label %23

19:                                               ; preds = %5
  %20 = getelementptr inbounds %"class.nanogui::ImageView", ptr %15, i32 0, i32 2
  %21 = call noundef ptr @_ZN7nanogui3refINS_7TextureEEcvPS1_Ev(ptr noundef nonnull align 8 dereferenceable(8) %20)
  %22 = icmp ne ptr %21, null
  br i1 %22, label %24, label %23

23:                                               ; preds = %19, %5
  store i1 false, ptr %6, align 1
  br label %33

24:                                               ; preds = %19
  %25 = load ptr, ptr %9, align 8
  %26 = call noundef ptr @_ZN7nanogui6Widget6screenEv(ptr noundef nonnull align 8 dereferenceable(140) %15)
  %27 = call noundef float @_ZNK7nanogui6Screen11pixel_ratioEv(ptr noundef nonnull align 8 dereferenceable(384) %26)
  %28 = fptosi float %27 to i32
  call void @_ZN7nanogui5ArrayIiLm2EEC2Ei(ptr noundef nonnull align 4 dereferenceable(8) %14, i32 noundef %28)
  %29 = call i64 @_ZN7nanoguimlERKNS_5ArrayIiLm2EEES3_(ptr noundef nonnull align 4 dereferenceable(8) %25, ptr noundef nonnull align 4 dereferenceable(8) %14)
  %30 = getelementptr inbounds %"struct.nanogui::Array", ptr %13, i32 0, i32 0
  store i64 %29, ptr %30, align 4
  call void @_ZN7nanogui5ArrayIfLm2EEC2IiEERKNS0_IT_Lm2EEE(ptr noundef nonnull align 4 dereferenceable(8) %12, ptr noundef nonnull align 4 dereferenceable(8) %13)
  %31 = getelementptr inbounds %"class.nanogui::ImageView", ptr %15, i32 0, i32 4
  %32 = call noundef nonnull align 4 dereferenceable(8) ptr @_ZN7nanogui5ArrayIfLm2EEpLERKS1_(ptr noundef nonnull align 4 dereferenceable(8) %31, ptr noundef nonnull align 4 dereferenceable(8) %12)
  store i1 true, ptr %6, align 1
  br label %33

33:                                               ; preds = %24, %23
  %34 = load i1, ptr %6, align 1
  ret i1 %34
}