; Function Attrs: mustprogress uwtable
define hidden noundef zeroext i1 @_ZN7nanogui9ImageView16mouse_drag_eventERKNS_5ArrayIiLm2EEES4_ii(ptr noundef nonnull align 8 dereferenceable(272) %0, ptr nocapture nonnull readnone align 4 %1, ptr nocapture noundef nonnull readonly align 4 dereferenceable(8) %2, i32 %3, i32 %4) unnamed_addr #8 align 2 {
  %6 = getelementptr inbounds i8, ptr %0, i64 89
  %7 = load i8, ptr %6, align 1
  %8 = and i8 %7, 1
  %.not = icmp ne i8 %8, 0
  %9 = getelementptr inbounds i8, ptr %0, i64 184
  %10 = load ptr, ptr %9, align 8
  %.not3 = icmp ne ptr %10, null
  %or.cond.not = select i1 %.not, i1 %.not3, i1 false
  br i1 %or.cond.not, label %_ZN7nanogui5ArrayIiLm2EEC2Ei.exit.critedge, label %_ZN7nanogui5ArrayIfLm2EEpLERKS1_.exit

_ZN7nanogui5ArrayIiLm2EEC2Ei.exit.critedge:       ; preds = %5
  %11 = tail call noundef ptr @_ZN7nanogui6Widget6screenEv(ptr noundef nonnull align 8 dereferenceable(140) %0)
  %12 = getelementptr inbounds i8, ptr %11, i64 248
  %13 = load float, ptr %12, align 8
  %14 = fptosi float %13 to i32
  %15 = getelementptr inbounds i8, ptr %0, i64 196
  %16 = load <2 x i32>, ptr %2, align 4
  %17 = insertelement <2 x i32> poison, i32 %14, i64 0
  %18 = shufflevector <2 x i32> %17, <2 x i32> poison, <2 x i32> zeroinitializer
  %19 = mul nsw <2 x i32> %16, %18
  %20 = sitofp <2 x i32> %19 to <2 x float>
  %21 = load <2 x float>, ptr %15, align 4
  %22 = fadd <2 x float> %21, %20
  store <2 x float> %22, ptr %15, align 4
  br label %_ZN7nanogui5ArrayIfLm2EEpLERKS1_.exit

_ZN7nanogui5ArrayIfLm2EEpLERKS1_.exit:            ; preds = %_ZN7nanogui5ArrayIiLm2EEC2Ei.exit.critedge, %5
  ret i1 %or.cond.not
}